Archive member included to satisfy reference by file (symbol)

/usr/lib/gcc/i686-elf/11.2.0/libgcc.a(_udivdi3.o)
                              /home/Campbell/Lumen/build/kernel/c/lib/stdio.obj (__udivdi3)
/usr/lib/gcc/i686-elf/11.2.0/libgcc.a(_umoddi3.o)
                              /home/Campbell/Lumen/build/kernel/c/lib/stdio.obj (__umoddi3)

There are no discarded input sections

Memory Configuration

Name             Origin             Length             Attributes
*default*        0x00000000         0xffffffff

Linker script and memory map

LOAD /home/Campbell/Lumen/build/kernel/asm/multitask/task_switch_asm.obj
LOAD /home/Campbell/Lumen/build/kernel/asm/arch/i686/gdt.obj
LOAD /home/Campbell/Lumen/build/kernel/asm/arch/i686/idt.obj
LOAD /home/Campbell/Lumen/build/kernel/asm/arch/i686/io.obj
LOAD /home/Campbell/Lumen/build/kernel/asm/arch/i686/isr.obj
LOAD /home/Campbell/Lumen/build/kernel/c/keyboard.obj
LOAD /home/Campbell/Lumen/build/kernel/c/main.obj
LOAD /home/Campbell/Lumen/build/kernel/c/panic.obj
LOAD /home/Campbell/Lumen/build/kernel/c/shell.obj
LOAD /home/Campbell/Lumen/build/kernel/c/sys.obj
LOAD /home/Campbell/Lumen/build/kernel/c/user.obj
LOAD /home/Campbell/Lumen/build/kernel/c/fs/ram_fs.obj
LOAD /home/Campbell/Lumen/build/kernel/c/hal/hal.obj
LOAD /home/Campbell/Lumen/build/kernel/c/lib/ctype.obj
LOAD /home/Campbell/Lumen/build/kernel/c/lib/stdio.obj
LOAD /home/Campbell/Lumen/build/kernel/c/lib/string.obj
LOAD /home/Campbell/Lumen/build/kernel/c/memory/memory.obj
LOAD /home/Campbell/Lumen/build/kernel/c/multitask/task.obj
LOAD /home/Campbell/Lumen/build/kernel/c/util/lum_format.obj
LOAD /home/Campbell/Lumen/build/kernel/c/util/sys_log.obj
LOAD /home/Campbell/Lumen/build/kernel/c/util/timer.obj
LOAD /home/Campbell/Lumen/build/kernel/c/arch/i686/gdt.obj
LOAD /home/Campbell/Lumen/build/kernel/c/arch/i686/idt.obj
LOAD /home/Campbell/Lumen/build/kernel/c/arch/i686/io.obj
LOAD /home/Campbell/Lumen/build/kernel/c/arch/i686/irq.obj
LOAD /home/Campbell/Lumen/build/kernel/c/arch/i686/isr.obj
LOAD /home/Campbell/Lumen/build/kernel/c/arch/i686/isrs_gen.obj
LOAD /home/Campbell/Lumen/build/kernel/c/arch/i686/pic.obj
LOAD /home/Campbell/Lumen/build/kernel/c/module/calc/calc.obj
LOAD /usr/lib/gcc/i686-elf/11.2.0/libgcc.a
                0x00100000                        phys = 0x100000
                0x00100000                        . = phys

.entry          0x00100000       0x8c
                0x00100000                        __entry_start = .
 *(.entry)
 .entry         0x00100000       0x8c /home/Campbell/Lumen/build/kernel/c/main.obj
                0x00100000                start

.text           0x00100090     0x5ee0
                0x00100090                        __text_start = .
 *(.text)
 .text          0x00100090       0x21 /home/Campbell/Lumen/build/kernel/asm/multitask/task_switch_asm.obj
                0x00100090                task_switch_asm
 *fill*         0x001000b1        0xf 
 .text          0x001000c0       0x25 /home/Campbell/Lumen/build/kernel/asm/arch/i686/gdt.obj
                0x001000c0                i686_GDT_Load
 *fill*         0x001000e5        0xb 
 .text          0x001000f0        0xd /home/Campbell/Lumen/build/kernel/asm/arch/i686/idt.obj
                0x001000f0                i686_IDT_Load
 *fill*         0x001000fd        0x3 
 .text          0x00100100       0x1d /home/Campbell/Lumen/build/kernel/asm/arch/i686/io.obj
                0x00100100                i686_outb
                0x0010010b                i686_inb
                0x00100114                i686_Panic
                0x00100116                i686_EnableInterrupts
                0x00100118                i686_DisableInterrupts
                0x0010011a                crash_me
 *fill*         0x0010011d        0x3 
 .text          0x00100120      0xa6d /home/Campbell/Lumen/build/kernel/asm/arch/i686/isr.obj
                0x00100120                i686_ISR0
                0x00100129                i686_ISR1
                0x00100132                i686_ISR2
                0x0010013b                i686_ISR3
                0x00100144                i686_ISR4
                0x0010014d                i686_ISR5
                0x00100156                i686_ISR6
                0x0010015f                i686_ISR7
                0x00100168                i686_ISR8
                0x0010016f                i686_ISR9
                0x00100178                i686_ISR10
                0x0010017f                i686_ISR11
                0x00100186                i686_ISR12
                0x0010018d                i686_ISR13
                0x00100194                i686_ISR14
                0x0010019b                i686_ISR15
                0x001001a4                i686_ISR16
                0x001001ad                i686_ISR17
                0x001001b4                i686_ISR18
                0x001001bd                i686_ISR19
                0x001001c6                i686_ISR20
                0x001001cf                i686_ISR21
                0x001001d6                i686_ISR22
                0x001001df                i686_ISR23
                0x001001e8                i686_ISR24
                0x001001f1                i686_ISR25
                0x001001fa                i686_ISR26
                0x00100203                i686_ISR27
                0x0010020c                i686_ISR28
                0x00100215                i686_ISR29
                0x0010021e                i686_ISR30
                0x00100227                i686_ISR31
                0x00100230                i686_ISR32
                0x00100239                i686_ISR33
                0x00100242                i686_ISR34
                0x0010024b                i686_ISR35
                0x00100254                i686_ISR36
                0x0010025d                i686_ISR37
                0x00100266                i686_ISR38
                0x0010026f                i686_ISR39
                0x00100278                i686_ISR40
                0x00100281                i686_ISR41
                0x0010028a                i686_ISR42
                0x00100293                i686_ISR43
                0x0010029c                i686_ISR44
                0x001002a5                i686_ISR45
                0x001002ae                i686_ISR46
                0x001002b7                i686_ISR47
                0x001002c0                i686_ISR48
                0x001002c9                i686_ISR49
                0x001002d2                i686_ISR50
                0x001002db                i686_ISR51
                0x001002e4                i686_ISR52
                0x001002ed                i686_ISR53
                0x001002f6                i686_ISR54
                0x001002ff                i686_ISR55
                0x00100308                i686_ISR56
                0x00100311                i686_ISR57
                0x0010031a                i686_ISR58
                0x00100323                i686_ISR59
                0x0010032c                i686_ISR60
                0x00100335                i686_ISR61
                0x0010033e                i686_ISR62
                0x00100347                i686_ISR63
                0x00100350                i686_ISR64
                0x00100359                i686_ISR65
                0x00100362                i686_ISR66
                0x0010036b                i686_ISR67
                0x00100374                i686_ISR68
                0x0010037d                i686_ISR69
                0x00100386                i686_ISR70
                0x0010038f                i686_ISR71
                0x00100398                i686_ISR72
                0x001003a1                i686_ISR73
                0x001003aa                i686_ISR74
                0x001003b3                i686_ISR75
                0x001003bc                i686_ISR76
                0x001003c5                i686_ISR77
                0x001003ce                i686_ISR78
                0x001003d7                i686_ISR79
                0x001003e0                i686_ISR80
                0x001003e9                i686_ISR81
                0x001003f2                i686_ISR82
                0x001003fb                i686_ISR83
                0x00100404                i686_ISR84
                0x0010040d                i686_ISR85
                0x00100416                i686_ISR86
                0x0010041f                i686_ISR87
                0x00100428                i686_ISR88
                0x00100431                i686_ISR89
                0x0010043a                i686_ISR90
                0x00100443                i686_ISR91
                0x0010044c                i686_ISR92
                0x00100455                i686_ISR93
                0x0010045e                i686_ISR94
                0x00100467                i686_ISR95
                0x00100470                i686_ISR96
                0x00100479                i686_ISR97
                0x00100482                i686_ISR98
                0x0010048b                i686_ISR99
                0x00100494                i686_ISR100
                0x0010049d                i686_ISR101
                0x001004a6                i686_ISR102
                0x001004af                i686_ISR103
                0x001004b8                i686_ISR104
                0x001004c1                i686_ISR105
                0x001004ca                i686_ISR106
                0x001004d3                i686_ISR107
                0x001004dc                i686_ISR108
                0x001004e5                i686_ISR109
                0x001004ee                i686_ISR110
                0x001004f7                i686_ISR111
                0x00100500                i686_ISR112
                0x00100509                i686_ISR113
                0x00100512                i686_ISR114
                0x0010051b                i686_ISR115
                0x00100524                i686_ISR116
                0x0010052d                i686_ISR117
                0x00100536                i686_ISR118
                0x0010053f                i686_ISR119
                0x00100548                i686_ISR120
                0x00100551                i686_ISR121
                0x0010055a                i686_ISR122
                0x00100563                i686_ISR123
                0x0010056c                i686_ISR124
                0x00100575                i686_ISR125
                0x0010057e                i686_ISR126
                0x00100587                i686_ISR127
                0x00100590                i686_ISR128
                0x0010059c                i686_ISR129
                0x001005a8                i686_ISR130
                0x001005b4                i686_ISR131
                0x001005c0                i686_ISR132
                0x001005cc                i686_ISR133
                0x001005d8                i686_ISR134
                0x001005e4                i686_ISR135
                0x001005f0                i686_ISR136
                0x001005fc                i686_ISR137
                0x00100608                i686_ISR138
                0x00100614                i686_ISR139
                0x00100620                i686_ISR140
                0x0010062c                i686_ISR141
                0x00100638                i686_ISR142
                0x00100644                i686_ISR143
                0x00100650                i686_ISR144
                0x0010065c                i686_ISR145
                0x00100668                i686_ISR146
                0x00100674                i686_ISR147
                0x00100680                i686_ISR148
                0x0010068c                i686_ISR149
                0x00100698                i686_ISR150
                0x001006a4                i686_ISR151
                0x001006b0                i686_ISR152
                0x001006bc                i686_ISR153
                0x001006c8                i686_ISR154
                0x001006d4                i686_ISR155
                0x001006e0                i686_ISR156
                0x001006ec                i686_ISR157
                0x001006f8                i686_ISR158
                0x00100704                i686_ISR159
                0x00100710                i686_ISR160
                0x0010071c                i686_ISR161
                0x00100728                i686_ISR162
                0x00100734                i686_ISR163
                0x00100740                i686_ISR164
                0x0010074c                i686_ISR165
                0x00100758                i686_ISR166
                0x00100764                i686_ISR167
                0x00100770                i686_ISR168
                0x0010077c                i686_ISR169
                0x00100788                i686_ISR170
                0x00100794                i686_ISR171
                0x001007a0                i686_ISR172
                0x001007ac                i686_ISR173
                0x001007b8                i686_ISR174
                0x001007c4                i686_ISR175
                0x001007d0                i686_ISR176
                0x001007dc                i686_ISR177
                0x001007e8                i686_ISR178
                0x001007f4                i686_ISR179
                0x00100800                i686_ISR180
                0x0010080c                i686_ISR181
                0x00100818                i686_ISR182
                0x00100824                i686_ISR183
                0x00100830                i686_ISR184
                0x0010083c                i686_ISR185
                0x00100848                i686_ISR186
                0x00100854                i686_ISR187
                0x00100860                i686_ISR188
                0x0010086c                i686_ISR189
                0x00100878                i686_ISR190
                0x00100884                i686_ISR191
                0x00100890                i686_ISR192
                0x0010089c                i686_ISR193
                0x001008a8                i686_ISR194
                0x001008b4                i686_ISR195
                0x001008c0                i686_ISR196
                0x001008cc                i686_ISR197
                0x001008d8                i686_ISR198
                0x001008e4                i686_ISR199
                0x001008f0                i686_ISR200
                0x001008fc                i686_ISR201
                0x00100908                i686_ISR202
                0x00100914                i686_ISR203
                0x00100920                i686_ISR204
                0x0010092c                i686_ISR205
                0x00100938                i686_ISR206
                0x00100944                i686_ISR207
                0x00100950                i686_ISR208
                0x0010095c                i686_ISR209
                0x00100968                i686_ISR210
                0x00100974                i686_ISR211
                0x00100980                i686_ISR212
                0x0010098c                i686_ISR213
                0x00100998                i686_ISR214
                0x001009a4                i686_ISR215
                0x001009b0                i686_ISR216
                0x001009bc                i686_ISR217
                0x001009c8                i686_ISR218
                0x001009d4                i686_ISR219
                0x001009e0                i686_ISR220
                0x001009ec                i686_ISR221
                0x001009f8                i686_ISR222
                0x00100a04                i686_ISR223
                0x00100a10                i686_ISR224
                0x00100a1c                i686_ISR225
                0x00100a28                i686_ISR226
                0x00100a34                i686_ISR227
                0x00100a40                i686_ISR228
                0x00100a4c                i686_ISR229
                0x00100a58                i686_ISR230
                0x00100a64                i686_ISR231
                0x00100a70                i686_ISR232
                0x00100a7c                i686_ISR233
                0x00100a88                i686_ISR234
                0x00100a94                i686_ISR235
                0x00100aa0                i686_ISR236
                0x00100aac                i686_ISR237
                0x00100ab8                i686_ISR238
                0x00100ac4                i686_ISR239
                0x00100ad0                i686_ISR240
                0x00100adc                i686_ISR241
                0x00100ae5                i686_ISR242
                0x00100aee                i686_ISR243
                0x00100af7                i686_ISR244
                0x00100b00                i686_ISR245
                0x00100b09                i686_ISR246
                0x00100b12                i686_ISR247
                0x00100b1b                i686_ISR248
                0x00100b24                i686_ISR249
                0x00100b2d                i686_ISR250
                0x00100b36                i686_ISR251
                0x00100b3f                i686_ISR252
                0x00100b48                i686_ISR253
                0x00100b51                i686_ISR254
                0x00100b5a                i686_ISR255
 .text          0x00100b8d      0x334 /home/Campbell/Lumen/build/kernel/c/keyboard.obj
                0x00100b8d                redraw_input_line
                0x00100c0a                keyboard_handler
                0x00100cf6                keyboard_initialize
                0x00100d1e                wait_for_key_release
                0x00100d4a                redraw_input_line_kscanf
                0x00100da6                get_string_scancode
 .text          0x00100ec1      0x1b8 /home/Campbell/Lumen/build/kernel/c/main.obj
                0x00100ef4                timer
                0x00100f30                clear_screen
                0x00100f7f                print_char_at
                0x00100fd3                print_lumen_test
                0x00101050                print_lumen_splash
 .text          0x00101079       0xa6 /home/Campbell/Lumen/build/kernel/c/panic.obj
                0x0010108b                terminal_setcolor
                0x001010a3                panic
 .text          0x0010111f      0xa6a /home/Campbell/Lumen/build/kernel/c/shell.obj
                0x0010111f                shell_default
                0x00101162                shell_init
                0x0010118a                trim_command
                0x001011f4                shell_process_command
 .text          0x00101b89      0x309 /home/Campbell/Lumen/build/kernel/c/sys.obj
                0x00101b89                sys_reboot
                0x00101b94                sys_poweroff
                0x00101ba7                sys_cat
                0x00101c21                sys_touch
                0x00101c3e                sys_append
                0x00101d42                sys_rm
                0x00101d58                sys_ls
                0x00101d6a                sys_permission_error
                0x00101dc4                sys_list_module
                0x00101dfa                sys_insmod
                0x00101e63                kread_char
 .text          0x00101e92      0x756 /home/Campbell/Lumen/build/kernel/c/user.obj
                0x00101e92                find_user
                0x00101ee1                login
                0x00101f34                create_user
                0x0010201d                delete_user
                0x0010215b                change_password
                0x0010221e                list_user
                0x0010227a                init_user
                0x001022b1                whoami
                0x00102357                init_users
                0x001024cd                set_privileges
 .text          0x001025e8      0x3b2 /home/Campbell/Lumen/build/kernel/c/fs/ram_fs.obj
                0x001025e8                fs_init
                0x00102612                fs_modify_file
                0x001026b1                fs_add_file
                0x001027db                fs_read_file
                0x00102897                fs_delete_file
                0x00102941                fs_list_files
 .text          0x0010299a       0x1d /home/Campbell/Lumen/build/kernel/c/hal/hal.obj
                0x0010299a                HAL_Initialize
 .text          0x001029b7       0x55 /home/Campbell/Lumen/build/kernel/c/lib/ctype.obj
                0x001029b7                islower
                0x001029e0                toupper
 .text          0x00102a0c      0xcd4 /home/Campbell/Lumen/build/kernel/c/lib/stdio.obj
                0x00102a2d                putchr
                0x00102a5c                putcolor
                0x00102a8e                getchr
                0x00102ab0                getcolor
                0x00102ad5                setcursor
                0x00102b46                clrscr
                0x00102bd4                clrscr_with_color
                0x00102c45                scrollback
                0x00102d33                putc
                0x00102e40                puts
                0x00102e6f                printf
                0x00103171                print_buffer
                0x0010320a                buffered_putc
                0x00103249                buffered_puts
                0x00103274                printf_unsigned
                0x00103354                printf_signed
                0x00103399                safe_printf
 .text          0x001036e0      0x355 /home/Campbell/Lumen/build/kernel/c/lib/string.obj
                0x001036e0                strchr
                0x0010371e                strcpy
                0x00103770                strlen
                0x00103796                strcmp
                0x001037d5                strncmp
                0x0010382b                strnlen
                0x0010385f                strncpy
                0x001038bc                atoi
                0x0010394c                itoa
 .text          0x00103a35      0x3ad /home/Campbell/Lumen/build/kernel/c/memory/memory.obj
                0x00103a35                memcpy
                0x00103a76                memset
                0x00103aa9                memcmp
                0x00103b11                heap_init
                0x00103beb                kmalloc
                0x00103c75                kfree
                0x00103d2e                print_heap_status
 .text          0x00103de2      0x18b /home/Campbell/Lumen/build/kernel/c/multitask/task.obj
                0x00103de2                task_create
                0x00103efd                init_tasking
                0x00103f0d                switch_task
                0x00103f5f                scheduler_tick
 .text          0x00103f6d        0x0 /home/Campbell/Lumen/build/kernel/c/util/lum_format.obj
 .text          0x00103f6d      0x272 /home/Campbell/Lumen/build/kernel/c/util/sys_log.obj
                0x00103f8b                log_level_to_str
                0x00103fcd                log_write
                0x00104167                log_dump
 .text          0x001041df       0xea /home/Campbell/Lumen/build/kernel/c/util/timer.obj
                0x001041df                timer_ticks
                0x001041e9                timer_callback
                0x001041fc                timer_initialize
                0x00104261                timer_wait
                0x00104284                uptime_seconds
                0x0010429c                sleep_ms
 .text          0x001042c9       0x1d /home/Campbell/Lumen/build/kernel/c/arch/i686/gdt.obj
                0x001042c9                i686_GDT_Initialize
 .text          0x001042e6       0xbc /home/Campbell/Lumen/build/kernel/c/arch/i686/idt.obj
                0x001042e6                i686_IDT_SetGate
                0x00104349                i686_IDT_EnableGate
                0x00104369                i686_IDT_DisableGate
                0x00104389                i686_IDT_Initialize
 .text          0x001043a2       0x1b /home/Campbell/Lumen/build/kernel/c/arch/i686/io.obj
                0x001043a2                i686_iowait
 .text          0x001043bd       0xcc /home/Campbell/Lumen/build/kernel/c/arch/i686/irq.obj
                0x001043bd                i686_IRQ_Handler
                0x0010442f                i686_IRQ_Initialize
                0x00104476                i686_IRQ_RegisterHandler
 .text          0x00104489       0xdc /home/Campbell/Lumen/build/kernel/c/arch/i686/isr.obj
                0x00104489                i686_ISR_Initialize
                0x001044cb                i686_ISR_Handler
                0x00104541                i686_ISR_RegisterHandler
 .text          0x00104565     0x1489 /home/Campbell/Lumen/build/kernel/c/arch/i686/isrs_gen.obj
                0x00104565                i686_ISR_InitializeGates
 .text          0x001059ee      0x2b6 /home/Campbell/Lumen/build/kernel/c/arch/i686/pic.obj
                0x001059ee                i686_PIC_Configure
                0x00105ae0                i686_PIC_SendEndOfInterrupt
                0x00105b10                i686_PIC_Disable
                0x00105b4a                i686_PIC_Mask
                0x00105b9e                i686_PIC_Unmask
                0x00105bf4                i686_PIC_ReadIrqRequestRegister
                0x00105c4c                i686_PIC_ReadInServiceRegister
 .text          0x00105ca4       0x3e /home/Campbell/Lumen/build/kernel/c/module/calc/calc.obj
                0x00105ca4                calc
 *fill*         0x00105ce2        0xe 
 .text          0x00105cf0      0x12a /usr/lib/gcc/i686-elf/11.2.0/libgcc.a(_udivdi3.o)
                0x00105cf0                __udivdi3
 *fill*         0x00105e1a        0x6 
 .text          0x00105e20      0x150 /usr/lib/gcc/i686-elf/11.2.0/libgcc.a(_umoddi3.o)
                0x00105e20                __umoddi3

.modules        0x00105f70        0x8
                0x00105f70                        __start_modules = .
 *(.modules)
 .modules       0x00105f70        0x8 /home/Campbell/Lumen/build/kernel/c/module/calc/calc.obj
                0x00105f70                __module_calc
                0x00105f78                        __stop_modules = .
                0x00105f78                        . = ALIGN (0x4)

.data           0x00105f80      0x292
                0x00105f80                        __data_start = .
 *(.data)
 .data          0x00105f80      0x100 /home/Campbell/Lumen/build/kernel/c/keyboard.obj
                0x00105f80                scancode_to_ascii_azerty
 .data          0x00106080        0x0 /home/Campbell/Lumen/build/kernel/c/main.obj
 .data          0x00106080        0x0 /home/Campbell/Lumen/build/kernel/c/panic.obj
 .data          0x00106080        0x0 /home/Campbell/Lumen/build/kernel/c/shell.obj
 .data          0x00106080        0x0 /home/Campbell/Lumen/build/kernel/c/sys.obj
 .data          0x00106080      0x164 /home/Campbell/Lumen/build/kernel/c/user.obj
 .data          0x001061e4        0x0 /home/Campbell/Lumen/build/kernel/c/fs/ram_fs.obj
 .data          0x001061e4        0x0 /home/Campbell/Lumen/build/kernel/c/hal/hal.obj
 .data          0x001061e4        0x0 /home/Campbell/Lumen/build/kernel/c/lib/ctype.obj
 .data          0x001061e4        0x8 /home/Campbell/Lumen/build/kernel/c/lib/stdio.obj
                0x001061e4                terminal_buffer
                0x001061e8                g_ScreenBuffer
 .data          0x001061ec        0x0 /home/Campbell/Lumen/build/kernel/c/lib/string.obj
 .data          0x001061ec        0x0 /home/Campbell/Lumen/build/kernel/c/memory/memory.obj
 .data          0x001061ec        0x0 /home/Campbell/Lumen/build/kernel/c/multitask/task.obj
 .data          0x001061ec        0x0 /home/Campbell/Lumen/build/kernel/c/util/lum_format.obj
 .data          0x001061ec        0x0 /home/Campbell/Lumen/build/kernel/c/util/sys_log.obj
 .data          0x001061ec        0x0 /home/Campbell/Lumen/build/kernel/c/util/timer.obj
 .data          0x001061ec       0x1e /home/Campbell/Lumen/build/kernel/c/arch/i686/gdt.obj
                0x001061ec                g_GDT
                0x00106204                g_GDTDescriptor
 *fill*         0x0010620a        0x2 
 .data          0x0010620c        0x6 /home/Campbell/Lumen/build/kernel/c/arch/i686/idt.obj
                0x0010620c                g_IDTDescriptor
 .data          0x00106212        0x0 /home/Campbell/Lumen/build/kernel/c/arch/i686/io.obj
 .data          0x00106212        0x0 /home/Campbell/Lumen/build/kernel/c/arch/i686/irq.obj
 .data          0x00106212        0x0 /home/Campbell/Lumen/build/kernel/c/arch/i686/isr.obj
 .data          0x00106212        0x0 /home/Campbell/Lumen/build/kernel/c/arch/i686/isrs_gen.obj
 .data          0x00106212        0x0 /home/Campbell/Lumen/build/kernel/c/arch/i686/pic.obj
 .data          0x00106212        0x0 /home/Campbell/Lumen/build/kernel/c/module/calc/calc.obj
 .data          0x00106212        0x0 /usr/lib/gcc/i686-elf/11.2.0/libgcc.a(_udivdi3.o)
 .data          0x00106212        0x0 /usr/lib/gcc/i686-elf/11.2.0/libgcc.a(_umoddi3.o)

.rodata         0x00106220     0x135e
                0x00106220                        __rodata_start = .
 *(.rodata)
 .rodata        0x00106220       0x21 /home/Campbell/Lumen/build/kernel/c/keyboard.obj
 *fill*         0x00106241        0x3 
 .rodata        0x00106244      0x2ab /home/Campbell/Lumen/build/kernel/c/main.obj
 *fill*         0x001064ef        0x1 
 .rodata        0x001064f0       0x7c /home/Campbell/Lumen/build/kernel/c/panic.obj
 .rodata        0x0010656c      0x6e4 /home/Campbell/Lumen/build/kernel/c/shell.obj
 .rodata        0x00106c50       0xdb /home/Campbell/Lumen/build/kernel/c/sys.obj
 *fill*         0x00106d2b        0x1 
 .rodata        0x00106d2c      0x2d5 /home/Campbell/Lumen/build/kernel/c/user.obj
 .rodata        0x00107001        0x4 /home/Campbell/Lumen/build/kernel/c/fs/ram_fs.obj
 *fill*         0x00107005        0x3 
 .rodata        0x00107008      0x154 /home/Campbell/Lumen/build/kernel/c/lib/stdio.obj
                0x00107008                SCREEN_WIDTH
                0x0010700c                SCREEN_HEIGHT
                0x00107010                DEFAULT_COLOR
                0x00107014                g_HexChars
 .rodata        0x0010715c       0xd9 /home/Campbell/Lumen/build/kernel/c/memory/memory.obj
 *fill*         0x00107235        0x3 
 .rodata        0x00107238       0x55 /home/Campbell/Lumen/build/kernel/c/util/sys_log.obj
 *fill*         0x0010728d        0x3 
 .rodata        0x00107290        0x4 /home/Campbell/Lumen/build/kernel/c/util/timer.obj
 .rodata        0x00107294       0x25 /home/Campbell/Lumen/build/kernel/c/arch/i686/irq.obj
 *fill*         0x001072b9        0x7 
 .rodata        0x001072c0      0x299 /home/Campbell/Lumen/build/kernel/c/arch/i686/isr.obj
 .rodata        0x00107559       0x25 /home/Campbell/Lumen/build/kernel/c/module/calc/calc.obj

.eh_frame       0x00107580       0xd8
 .eh_frame      0x00107580       0x64 /usr/lib/gcc/i686-elf/11.2.0/libgcc.a(_udivdi3.o)
 .eh_frame      0x001075e4       0x74 /usr/lib/gcc/i686-elf/11.2.0/libgcc.a(_umoddi3.o)

.bss            0x00107660   0x10636c
                0x00107660                        __bss_start = .
 *(.bss)
 .bss           0x00107660      0x104 /home/Campbell/Lumen/build/kernel/c/keyboard.obj
                0x00107660                input_buffer
                0x00107760                input_index
 .bss           0x00107764        0x4 /home/Campbell/Lumen/build/kernel/c/main.obj
 .bss           0x00107768        0xa /home/Campbell/Lumen/build/kernel/c/panic.obj
                0x00107768                terminal_row
                0x0010776c                terminal_column
                0x00107770                terminal_color
 .bss           0x00107772        0x0 /home/Campbell/Lumen/build/kernel/c/shell.obj
 *fill*         0x00107772        0xe 
 .bss           0x00107780      0x1dc /home/Campbell/Lumen/build/kernel/c/sys.obj
                0x00107780                user_head
 .bss           0x0010795c        0x4 /home/Campbell/Lumen/build/kernel/c/user.obj
                0x0010795c                current_user
 .bss           0x00107960     0x4284 /home/Campbell/Lumen/build/kernel/c/fs/ram_fs.obj
 .bss           0x0010bbe4        0x0 /home/Campbell/Lumen/build/kernel/c/hal/hal.obj
 .bss           0x0010bbe4        0x0 /home/Campbell/Lumen/build/kernel/c/lib/ctype.obj
 *fill*         0x0010bbe4       0x1c 
 .bss           0x0010bc00      0x124 /home/Campbell/Lumen/build/kernel/c/lib/stdio.obj
                0x0010bc00                g_ScreenX
                0x0010bc04                g_ScreenY
 .bss           0x0010bd24        0x0 /home/Campbell/Lumen/build/kernel/c/lib/string.obj
 *fill*         0x0010bd24       0x1c 
 .bss           0x0010bd40   0x100004 /home/Campbell/Lumen/build/kernel/c/memory/memory.obj
 .bss           0x0020bd44        0x4 /home/Campbell/Lumen/build/kernel/c/multitask/task.obj
 .bss           0x0020bd48        0x0 /home/Campbell/Lumen/build/kernel/c/util/lum_format.obj
 *fill*         0x0020bd48       0x18 
 .bss           0x0020bd60     0x100c /home/Campbell/Lumen/build/kernel/c/util/sys_log.obj
 .bss           0x0020cd6c        0x4 /home/Campbell/Lumen/build/kernel/c/util/timer.obj
 .bss           0x0020cd70        0x0 /home/Campbell/Lumen/build/kernel/c/arch/i686/gdt.obj
 *fill*         0x0020cd70       0x10 
 .bss           0x0020cd80      0x800 /home/Campbell/Lumen/build/kernel/c/arch/i686/idt.obj
                0x0020cd80                g_IDT
 .bss           0x0020d580        0x0 /home/Campbell/Lumen/build/kernel/c/arch/i686/io.obj
 .bss           0x0020d580       0x40 /home/Campbell/Lumen/build/kernel/c/arch/i686/irq.obj
                0x0020d580                g_IRQHandlers
 .bss           0x0020d5c0      0x400 /home/Campbell/Lumen/build/kernel/c/arch/i686/isr.obj
                0x0020d5c0                g_ISRHandlers
 .bss           0x0020d9c0        0x0 /home/Campbell/Lumen/build/kernel/c/arch/i686/isrs_gen.obj
 .bss           0x0020d9c0        0xc /home/Campbell/Lumen/build/kernel/c/arch/i686/pic.obj
                0x0020d9c0                PIC_ICW1
                0x0020d9c4                PIC_ICW4
                0x0020d9c8                PIC_CMD
 .bss           0x0020d9cc        0x0 /home/Campbell/Lumen/build/kernel/c/module/calc/calc.obj
 .bss           0x0020d9cc        0x0 /usr/lib/gcc/i686-elf/11.2.0/libgcc.a(_udivdi3.o)
 .bss           0x0020d9cc        0x0 /usr/lib/gcc/i686-elf/11.2.0/libgcc.a(_umoddi3.o)
                0x0020d9cc                        __end = .
OUTPUT(/home/Campbell/Lumen/build/kernel.bin binary)

.debug_info     0x00000000     0x5108
 .debug_info    0x00000000      0x470 /home/Campbell/Lumen/build/kernel/c/keyboard.obj
 .debug_info    0x00000470      0x4c7 /home/Campbell/Lumen/build/kernel/c/main.obj
 .debug_info    0x00000937      0x1f0 /home/Campbell/Lumen/build/kernel/c/panic.obj
 .debug_info    0x00000b27      0x599 /home/Campbell/Lumen/build/kernel/c/shell.obj
 .debug_info    0x000010c0      0x541 /home/Campbell/Lumen/build/kernel/c/sys.obj
 .debug_info    0x00001601      0x42c /home/Campbell/Lumen/build/kernel/c/user.obj
 .debug_info    0x00001a2d      0x463 /home/Campbell/Lumen/build/kernel/c/fs/ram_fs.obj
 .debug_info    0x00001e90       0xb3 /home/Campbell/Lumen/build/kernel/c/hal/hal.obj
 .debug_info    0x00001f43       0xcb /home/Campbell/Lumen/build/kernel/c/lib/ctype.obj
 .debug_info    0x0000200e      0x785 /home/Campbell/Lumen/build/kernel/c/lib/stdio.obj
 .debug_info    0x00002793      0x317 /home/Campbell/Lumen/build/kernel/c/lib/string.obj
 .debug_info    0x00002aaa      0x3ca /home/Campbell/Lumen/build/kernel/c/memory/memory.obj
 .debug_info    0x00002e74      0x1cb /home/Campbell/Lumen/build/kernel/c/multitask/task.obj
 .debug_info    0x0000303f      0x28e /home/Campbell/Lumen/build/kernel/c/util/sys_log.obj
 .debug_info    0x000032cd      0x2d8 /home/Campbell/Lumen/build/kernel/c/util/timer.obj
 .debug_info    0x000035a5      0x1fa /home/Campbell/Lumen/build/kernel/c/arch/i686/gdt.obj
 .debug_info    0x0000379f      0x24e /home/Campbell/Lumen/build/kernel/c/arch/i686/idt.obj
 .debug_info    0x000039ed       0xac /home/Campbell/Lumen/build/kernel/c/arch/i686/io.obj
 .debug_info    0x00003a99      0x2fa /home/Campbell/Lumen/build/kernel/c/arch/i686/irq.obj
 .debug_info    0x00003d93      0x2cd /home/Campbell/Lumen/build/kernel/c/arch/i686/isr.obj
 .debug_info    0x00004060      0xd09 /home/Campbell/Lumen/build/kernel/c/arch/i686/isrs_gen.obj
 .debug_info    0x00004d69      0x267 /home/Campbell/Lumen/build/kernel/c/arch/i686/pic.obj
 .debug_info    0x00004fd0      0x138 /home/Campbell/Lumen/build/kernel/c/module/calc/calc.obj

.debug_abbrev   0x00000000     0x1eb9
 .debug_abbrev  0x00000000      0x1d0 /home/Campbell/Lumen/build/kernel/c/keyboard.obj
 .debug_abbrev  0x000001d0      0x21a /home/Campbell/Lumen/build/kernel/c/main.obj
 .debug_abbrev  0x000003ea      0x123 /home/Campbell/Lumen/build/kernel/c/panic.obj
 .debug_abbrev  0x0000050d      0x1cd /home/Campbell/Lumen/build/kernel/c/shell.obj
 .debug_abbrev  0x000006da      0x1f2 /home/Campbell/Lumen/build/kernel/c/sys.obj
 .debug_abbrev  0x000008cc      0x1bd /home/Campbell/Lumen/build/kernel/c/user.obj
 .debug_abbrev  0x00000a89      0x1ae /home/Campbell/Lumen/build/kernel/c/fs/ram_fs.obj
 .debug_abbrev  0x00000c37       0x5a /home/Campbell/Lumen/build/kernel/c/hal/hal.obj
 .debug_abbrev  0x00000c91       0x77 /home/Campbell/Lumen/build/kernel/c/lib/ctype.obj
 .debug_abbrev  0x00000d08      0x286 /home/Campbell/Lumen/build/kernel/c/lib/stdio.obj
 .debug_abbrev  0x00000f8e       0xe6 /home/Campbell/Lumen/build/kernel/c/lib/string.obj
 .debug_abbrev  0x00001074      0x1d4 /home/Campbell/Lumen/build/kernel/c/memory/memory.obj
 .debug_abbrev  0x00001248      0x12d /home/Campbell/Lumen/build/kernel/c/multitask/task.obj
 .debug_abbrev  0x00001375      0x167 /home/Campbell/Lumen/build/kernel/c/util/sys_log.obj
 .debug_abbrev  0x000014dc      0x15b /home/Campbell/Lumen/build/kernel/c/util/timer.obj
 .debug_abbrev  0x00001637       0xf0 /home/Campbell/Lumen/build/kernel/c/arch/i686/gdt.obj
 .debug_abbrev  0x00001727      0x122 /home/Campbell/Lumen/build/kernel/c/arch/i686/idt.obj
 .debug_abbrev  0x00001849       0x6d /home/Campbell/Lumen/build/kernel/c/arch/i686/io.obj
 .debug_abbrev  0x000018b6      0x18c /home/Campbell/Lumen/build/kernel/c/arch/i686/irq.obj
 .debug_abbrev  0x00001a42      0x178 /home/Campbell/Lumen/build/kernel/c/arch/i686/isr.obj
 .debug_abbrev  0x00001bba       0xbf /home/Campbell/Lumen/build/kernel/c/arch/i686/isrs_gen.obj
 .debug_abbrev  0x00001c79      0x15a /home/Campbell/Lumen/build/kernel/c/arch/i686/pic.obj
 .debug_abbrev  0x00001dd3       0xe6 /home/Campbell/Lumen/build/kernel/c/module/calc/calc.obj

.debug_aranges  0x00000000      0x2e8
 .debug_aranges
                0x00000000       0x20 /home/Campbell/Lumen/build/kernel/c/keyboard.obj
 .debug_aranges
                0x00000020       0x28 /home/Campbell/Lumen/build/kernel/c/main.obj
 .debug_aranges
                0x00000048       0x20 /home/Campbell/Lumen/build/kernel/c/panic.obj
 .debug_aranges
                0x00000068       0x20 /home/Campbell/Lumen/build/kernel/c/shell.obj
 .debug_aranges
                0x00000088       0x20 /home/Campbell/Lumen/build/kernel/c/sys.obj
 .debug_aranges
                0x000000a8       0x20 /home/Campbell/Lumen/build/kernel/c/user.obj
 .debug_aranges
                0x000000c8       0x20 /home/Campbell/Lumen/build/kernel/c/fs/ram_fs.obj
 .debug_aranges
                0x000000e8       0x20 /home/Campbell/Lumen/build/kernel/c/hal/hal.obj
 .debug_aranges
                0x00000108       0x20 /home/Campbell/Lumen/build/kernel/c/lib/ctype.obj
 .debug_aranges
                0x00000128       0x20 /home/Campbell/Lumen/build/kernel/c/lib/stdio.obj
 .debug_aranges
                0x00000148       0x20 /home/Campbell/Lumen/build/kernel/c/lib/string.obj
 .debug_aranges
                0x00000168       0x20 /home/Campbell/Lumen/build/kernel/c/memory/memory.obj
 .debug_aranges
                0x00000188       0x20 /home/Campbell/Lumen/build/kernel/c/multitask/task.obj
 .debug_aranges
                0x000001a8       0x20 /home/Campbell/Lumen/build/kernel/c/util/sys_log.obj
 .debug_aranges
                0x000001c8       0x20 /home/Campbell/Lumen/build/kernel/c/util/timer.obj
 .debug_aranges
                0x000001e8       0x20 /home/Campbell/Lumen/build/kernel/c/arch/i686/gdt.obj
 .debug_aranges
                0x00000208       0x20 /home/Campbell/Lumen/build/kernel/c/arch/i686/idt.obj
 .debug_aranges
                0x00000228       0x20 /home/Campbell/Lumen/build/kernel/c/arch/i686/io.obj
 .debug_aranges
                0x00000248       0x20 /home/Campbell/Lumen/build/kernel/c/arch/i686/irq.obj
 .debug_aranges
                0x00000268       0x20 /home/Campbell/Lumen/build/kernel/c/arch/i686/isr.obj
 .debug_aranges
                0x00000288       0x20 /home/Campbell/Lumen/build/kernel/c/arch/i686/isrs_gen.obj
 .debug_aranges
                0x000002a8       0x20 /home/Campbell/Lumen/build/kernel/c/arch/i686/pic.obj
 .debug_aranges
                0x000002c8       0x20 /home/Campbell/Lumen/build/kernel/c/module/calc/calc.obj

.debug_line     0x00000000     0x23b7
 .debug_line    0x00000000      0x1ed /home/Campbell/Lumen/build/kernel/c/keyboard.obj
 .debug_line    0x000001ed      0x1aa /home/Campbell/Lumen/build/kernel/c/main.obj
 .debug_line    0x00000397       0x96 /home/Campbell/Lumen/build/kernel/c/panic.obj
 .debug_line    0x0000042d      0x36c /home/Campbell/Lumen/build/kernel/c/shell.obj
 .debug_line    0x00000799      0x1b9 /home/Campbell/Lumen/build/kernel/c/sys.obj
 .debug_line    0x00000952      0x332 /home/Campbell/Lumen/build/kernel/c/user.obj
 .debug_line    0x00000c84      0x1c2 /home/Campbell/Lumen/build/kernel/c/fs/ram_fs.obj
 .debug_line    0x00000e46       0x6a /home/Campbell/Lumen/build/kernel/c/hal/hal.obj
 .debug_line    0x00000eb0       0x8c /home/Campbell/Lumen/build/kernel/c/lib/ctype.obj
 .debug_line    0x00000f3c      0x56b /home/Campbell/Lumen/build/kernel/c/lib/stdio.obj
 .debug_line    0x000014a7      0x28e /home/Campbell/Lumen/build/kernel/c/lib/string.obj
 .debug_line    0x00001735      0x286 /home/Campbell/Lumen/build/kernel/c/memory/memory.obj
 .debug_line    0x000019bb       0xfb /home/Campbell/Lumen/build/kernel/c/multitask/task.obj
 .debug_line    0x00001ab6        0x0 /home/Campbell/Lumen/build/kernel/c/util/lum_format.obj
 .debug_line    0x00001ab6      0x196 /home/Campbell/Lumen/build/kernel/c/util/sys_log.obj
 .debug_line    0x00001c4c       0xd0 /home/Campbell/Lumen/build/kernel/c/util/timer.obj
 .debug_line    0x00001d1c       0x5c /home/Campbell/Lumen/build/kernel/c/arch/i686/gdt.obj
 .debug_line    0x00001d78       0x89 /home/Campbell/Lumen/build/kernel/c/arch/i686/idt.obj
 .debug_line    0x00001e01       0x5e /home/Campbell/Lumen/build/kernel/c/arch/i686/io.obj
 .debug_line    0x00001e5f       0xbe /home/Campbell/Lumen/build/kernel/c/arch/i686/irq.obj
 .debug_line    0x00001f1d       0xce /home/Campbell/Lumen/build/kernel/c/arch/i686/isr.obj
 .debug_line    0x00001feb      0x25f /home/Campbell/Lumen/build/kernel/c/arch/i686/isrs_gen.obj
 .debug_line    0x0000224a       0xff /home/Campbell/Lumen/build/kernel/c/arch/i686/pic.obj
 .debug_line    0x00002349       0x6e /home/Campbell/Lumen/build/kernel/c/module/calc/calc.obj

.debug_str      0x00000000     0x3d22
 .debug_str     0x00000000      0x2ca /home/Campbell/Lumen/build/kernel/c/keyboard.obj
 .debug_str     0x000002ca      0x399 /home/Campbell/Lumen/build/kernel/c/main.obj
 .debug_str     0x00000663      0x2a1 /home/Campbell/Lumen/build/kernel/c/panic.obj
 .debug_str     0x00000904      0x353 /home/Campbell/Lumen/build/kernel/c/shell.obj
 .debug_str     0x00000c57      0x303 /home/Campbell/Lumen/build/kernel/c/sys.obj
 .debug_str     0x00000f5a      0x23f /home/Campbell/Lumen/build/kernel/c/user.obj
 .debug_str     0x00001199      0x215 /home/Campbell/Lumen/build/kernel/c/fs/ram_fs.obj
 .debug_str     0x000013ae      0x12e /home/Campbell/Lumen/build/kernel/c/hal/hal.obj
 .debug_str     0x000014dc       0xea /home/Campbell/Lumen/build/kernel/c/lib/ctype.obj
 .debug_str     0x000015c6      0x2f9 /home/Campbell/Lumen/build/kernel/c/lib/stdio.obj
 .debug_str     0x000018bf      0x168 /home/Campbell/Lumen/build/kernel/c/lib/string.obj
 .debug_str     0x00001a27      0x1a7 /home/Campbell/Lumen/build/kernel/c/memory/memory.obj
 .debug_str     0x00001bce      0x17a /home/Campbell/Lumen/build/kernel/c/multitask/task.obj
 .debug_str     0x00001d48       0x4b /home/Campbell/Lumen/build/kernel/c/util/lum_format.obj
 .debug_str     0x00001d93      0x1b6 /home/Campbell/Lumen/build/kernel/c/util/sys_log.obj
 .debug_str     0x00001f49      0x1eb /home/Campbell/Lumen/build/kernel/c/util/timer.obj
 .debug_str     0x00002134      0x2fa /home/Campbell/Lumen/build/kernel/c/arch/i686/gdt.obj
 .debug_str     0x0000242e      0x291 /home/Campbell/Lumen/build/kernel/c/arch/i686/idt.obj
 .debug_str     0x000026bf       0xf6 /home/Campbell/Lumen/build/kernel/c/arch/i686/io.obj
 .debug_str     0x000027b5      0x235 /home/Campbell/Lumen/build/kernel/c/arch/i686/irq.obj
 .debug_str     0x000029ea      0x1d7 /home/Campbell/Lumen/build/kernel/c/arch/i686/isr.obj
 .debug_str     0x00002bc1      0xd5e /home/Campbell/Lumen/build/kernel/c/arch/i686/isrs_gen.obj
 .debug_str     0x0000391f      0x2d3 /home/Campbell/Lumen/build/kernel/c/arch/i686/pic.obj
 .debug_str     0x00003bf2      0x130 /home/Campbell/Lumen/build/kernel/c/module/calc/calc.obj

.debug_line_str
                0x00000000     0x10d2
 .debug_line_str
                0x00000000       0xda /home/Campbell/Lumen/build/kernel/c/keyboard.obj
 .debug_line_str
                0x000000da      0x104 /home/Campbell/Lumen/build/kernel/c/main.obj
 .debug_line_str
                0x000001de       0xa8 /home/Campbell/Lumen/build/kernel/c/panic.obj
 .debug_line_str
                0x00000286       0xd7 /home/Campbell/Lumen/build/kernel/c/shell.obj
 .debug_line_str
                0x0000035d       0xf6 /home/Campbell/Lumen/build/kernel/c/sys.obj
 .debug_line_str
                0x00000453       0xa5 /home/Campbell/Lumen/build/kernel/c/user.obj
 .debug_line_str
                0x000004f8       0xcc /home/Campbell/Lumen/build/kernel/c/fs/ram_fs.obj
 .debug_line_str
                0x000005c4       0x7e /home/Campbell/Lumen/build/kernel/c/hal/hal.obj
 .debug_line_str
                0x00000642       0x60 /home/Campbell/Lumen/build/kernel/c/lib/ctype.obj
 .debug_line_str
                0x000006a2       0xdd /home/Campbell/Lumen/build/kernel/c/lib/stdio.obj
 .debug_line_str
                0x0000077f       0x91 /home/Campbell/Lumen/build/kernel/c/lib/string.obj
 .debug_line_str
                0x00000810       0xc3 /home/Campbell/Lumen/build/kernel/c/memory/memory.obj
 .debug_line_str
                0x000008d3       0xc8 /home/Campbell/Lumen/build/kernel/c/multitask/task.obj
 .debug_line_str
                0x0000099b       0x32 /home/Campbell/Lumen/build/kernel/c/util/lum_format.obj
 .debug_line_str
                0x000009cd       0xbd /home/Campbell/Lumen/build/kernel/c/util/sys_log.obj
 .debug_line_str
                0x00000a8a       0xe9 /home/Campbell/Lumen/build/kernel/c/util/timer.obj
 .debug_line_str
                0x00000b73       0x98 /home/Campbell/Lumen/build/kernel/c/arch/i686/gdt.obj
 .debug_line_str
                0x00000c0b       0x9e /home/Campbell/Lumen/build/kernel/c/arch/i686/idt.obj
 .debug_line_str
                0x00000ca9       0x9a /home/Campbell/Lumen/build/kernel/c/arch/i686/io.obj
 .debug_line_str
                0x00000d43       0xaf /home/Campbell/Lumen/build/kernel/c/arch/i686/irq.obj
 .debug_line_str
                0x00000df2       0xc5 /home/Campbell/Lumen/build/kernel/c/arch/i686/isr.obj
 .debug_line_str
                0x00000eb7       0xad /home/Campbell/Lumen/build/kernel/c/arch/i686/isrs_gen.obj
 .debug_line_str
                0x00000f64       0x9d /home/Campbell/Lumen/build/kernel/c/arch/i686/pic.obj
 .debug_line_str
                0x00001001       0xd1 /home/Campbell/Lumen/build/kernel/c/module/calc/calc.obj

.comment        0x00000000      0x1ee
 .comment       0x00000000       0x13 /home/Campbell/Lumen/build/kernel/c/keyboard.obj
 .comment       0x00000013       0x13 /home/Campbell/Lumen/build/kernel/c/main.obj
 .comment       0x00000026       0x13 /home/Campbell/Lumen/build/kernel/c/panic.obj
 .comment       0x00000039       0x13 /home/Campbell/Lumen/build/kernel/c/shell.obj
 .comment       0x0000004c       0x13 /home/Campbell/Lumen/build/kernel/c/sys.obj
 .comment       0x0000005f       0x13 /home/Campbell/Lumen/build/kernel/c/user.obj
 .comment       0x00000072       0x13 /home/Campbell/Lumen/build/kernel/c/fs/ram_fs.obj
 .comment       0x00000085       0x13 /home/Campbell/Lumen/build/kernel/c/hal/hal.obj
 .comment       0x00000098       0x13 /home/Campbell/Lumen/build/kernel/c/lib/ctype.obj
 .comment       0x000000ab       0x13 /home/Campbell/Lumen/build/kernel/c/lib/stdio.obj
 .comment       0x000000be       0x13 /home/Campbell/Lumen/build/kernel/c/lib/string.obj
 .comment       0x000000d1       0x13 /home/Campbell/Lumen/build/kernel/c/memory/memory.obj
 .comment       0x000000e4       0x13 /home/Campbell/Lumen/build/kernel/c/multitask/task.obj
 .comment       0x000000f7       0x13 /home/Campbell/Lumen/build/kernel/c/util/lum_format.obj
 .comment       0x0000010a       0x13 /home/Campbell/Lumen/build/kernel/c/util/sys_log.obj
 .comment       0x0000011d       0x13 /home/Campbell/Lumen/build/kernel/c/util/timer.obj
 .comment       0x00000130       0x13 /home/Campbell/Lumen/build/kernel/c/arch/i686/gdt.obj
 .comment       0x00000143       0x13 /home/Campbell/Lumen/build/kernel/c/arch/i686/idt.obj
 .comment       0x00000156       0x13 /home/Campbell/Lumen/build/kernel/c/arch/i686/io.obj
 .comment       0x00000169       0x13 /home/Campbell/Lumen/build/kernel/c/arch/i686/irq.obj
 .comment       0x0000017c       0x13 /home/Campbell/Lumen/build/kernel/c/arch/i686/isr.obj
 .comment       0x0000018f       0x13 /home/Campbell/Lumen/build/kernel/c/arch/i686/isrs_gen.obj
 .comment       0x000001a2       0x13 /home/Campbell/Lumen/build/kernel/c/arch/i686/pic.obj
 .comment       0x000001b5       0x13 /home/Campbell/Lumen/build/kernel/c/module/calc/calc.obj
 .comment       0x000001c8       0x13 /usr/lib/gcc/i686-elf/11.2.0/libgcc.a(_udivdi3.o)
 .comment       0x000001db       0x13 /usr/lib/gcc/i686-elf/11.2.0/libgcc.a(_umoddi3.o)

.debug_frame    0x00000000     0x1110
 .debug_frame   0x00000000       0xd4 /home/Campbell/Lumen/build/kernel/c/keyboard.obj
 .debug_frame   0x000000d4      0x118 /home/Campbell/Lumen/build/kernel/c/main.obj
 .debug_frame   0x000001ec       0x6c /home/Campbell/Lumen/build/kernel/c/panic.obj
 .debug_frame   0x00000258       0x94 /home/Campbell/Lumen/build/kernel/c/shell.obj
 .debug_frame   0x000002ec      0x164 /home/Campbell/Lumen/build/kernel/c/sys.obj
 .debug_frame   0x00000450      0x154 /home/Campbell/Lumen/build/kernel/c/user.obj
 .debug_frame   0x000005a4       0xd4 /home/Campbell/Lumen/build/kernel/c/fs/ram_fs.obj
 .debug_frame   0x00000678       0x34 /home/Campbell/Lumen/build/kernel/c/hal/hal.obj
 .debug_frame   0x000006ac       0x54 /home/Campbell/Lumen/build/kernel/c/lib/ctype.obj
 .debug_frame   0x00000700      0x264 /home/Campbell/Lumen/build/kernel/c/lib/stdio.obj
 .debug_frame   0x00000964      0x134 /home/Campbell/Lumen/build/kernel/c/lib/string.obj
 .debug_frame   0x00000a98      0x134 /home/Campbell/Lumen/build/kernel/c/memory/memory.obj
 .debug_frame   0x00000bcc       0x94 /home/Campbell/Lumen/build/kernel/c/multitask/task.obj
 .debug_frame   0x00000c60       0x94 /home/Campbell/Lumen/build/kernel/c/util/sys_log.obj
 .debug_frame   0x00000cf4       0xd4 /home/Campbell/Lumen/build/kernel/c/util/timer.obj
 .debug_frame   0x00000dc8       0x34 /home/Campbell/Lumen/build/kernel/c/arch/i686/gdt.obj
 .debug_frame   0x00000dfc       0x94 /home/Campbell/Lumen/build/kernel/c/arch/i686/idt.obj
 .debug_frame   0x00000e90       0x34 /home/Campbell/Lumen/build/kernel/c/arch/i686/io.obj
 .debug_frame   0x00000ec4       0x74 /home/Campbell/Lumen/build/kernel/c/arch/i686/irq.obj
 .debug_frame   0x00000f38       0x74 /home/Campbell/Lumen/build/kernel/c/arch/i686/isr.obj
 .debug_frame   0x00000fac       0x34 /home/Campbell/Lumen/build/kernel/c/arch/i686/isrs_gen.obj
 .debug_frame   0x00000fe0       0xfc /home/Campbell/Lumen/build/kernel/c/arch/i686/pic.obj
 .debug_frame   0x000010dc       0x34 /home/Campbell/Lumen/build/kernel/c/module/calc/calc.obj

.debug_rnglists
                0x00000000       0x1b
 .debug_rnglists
                0x00000000       0x1b /home/Campbell/Lumen/build/kernel/c/main.obj
